; Function Attrs: mustprogress uwtable
define hidden void @_ZN7datalog16rule_transformer5resetEv(ptr noundef nonnull align 8 captures(none) dereferenceable(32) %0) local_unnamed_addr #5 align 2 {
  %2 = getelementptr inbounds nuw i8, ptr %0, i64 24
  %3 = load ptr, ptr %2, align 8, !tbaa !17
  %4 = icmp eq ptr %3, null
  br i1 %4, label %_ZN6vectorIPN7datalog16rule_transformer6pluginELb0EjE5resetEv.exit, label %_ZN6vectorIPN7datalog16rule_transformer6pluginELb0EjE3endEv.exit

_ZN6vectorIPN7datalog16rule_transformer6pluginELb0EjE3endEv.exit: ; preds = %1
  %5 = getelementptr inbounds i8, ptr %3, i64 -4
  %6 = load i32, ptr %5, align 4, !tbaa !18
  %7 = zext i32 %6 to i64
  %8 = getelementptr inbounds nuw ptr, ptr %3, i64 %7
  %.not8 = icmp eq i32 %6, 0
  br i1 %.not8, label %._crit_edge.thread13, label %.lr.ph

._crit_edge:                                      ; preds = %_Z7deallocIN7datalog16rule_transformer6pluginEEvPT_.exit
  %.pre = load ptr, ptr %2, align 8, !tbaa !17
  %.not.i = icmp eq ptr %.pre, null
  br i1 %.not.i, label %_ZN6vectorIPN7datalog16rule_transformer6pluginELb0EjE5resetEv.exit, label %._crit_edge.thread13

._crit_edge.thread13:                             ; preds = %_ZN6vectorIPN7datalog16rule_transformer6pluginELb0EjE3endEv.exit, %._crit_edge
  %9 = phi ptr [ %.pre, %._crit_edge ], [ %3, %_ZN6vectorIPN7datalog16rule_transformer6pluginELb0EjE3endEv.exit ]
  %10 = getelementptr inbounds i8, ptr %9, i64 -4
  store i32 0, ptr %10, align 4, !tbaa !18
  br label %_ZN6vectorIPN7datalog16rule_transformer6pluginELb0EjE5resetEv.exit

_ZN6vectorIPN7datalog16rule_transformer6pluginELb0EjE5resetEv.exit: ; preds = %1, %._crit_edge, %._crit_edge.thread13
  %11 = getelementptr inbounds nuw i8, ptr %0, i64 16
  store i8 0, ptr %11, align 8, !tbaa !10
  ret void

.lr.ph:                                           ; preds = %_ZN6vectorIPN7datalog16rule_transformer6pluginELb0EjE3endEv.exit, %_Z7deallocIN7datalog16rule_transformer6pluginEEvPT_.exit
  %.09 = phi ptr [ %17, %_Z7deallocIN7datalog16rule_transformer6pluginEEvPT_.exit ], [ %3, %_ZN6vectorIPN7datalog16rule_transformer6pluginELb0EjE3endEv.exit ]
  %12 = load ptr, ptr %.09, align 8, !tbaa !20
  %13 = icmp eq ptr %12, null
  br i1 %13, label %_Z7deallocIN7datalog16rule_transformer6pluginEEvPT_.exit, label %14

14:                                               ; preds = %.lr.ph
  %15 = load ptr, ptr %12, align 8, !tbaa !22
  %16 = load ptr, ptr %15, align 8
  tail call void %16(ptr noundef nonnull align 8 dereferenceable(24) %12) #20
  tail call void @_ZN6memory10deallocateEPv(ptr noundef nonnull %12)
  br label %_Z7deallocIN7datalog16rule_transformer6pluginEEvPT_.exit

_Z7deallocIN7datalog16rule_transformer6pluginEEvPT_.exit: ; preds = %.lr.ph, %14
  %17 = getelementptr inbounds nuw i8, ptr %.09, i64 8
  %.not = icmp eq ptr %17, %8
  br i1 %.not, label %._crit_edge, label %.lr.ph
}